target datalayout = "e-m:e-p270:32:32-p271:32:32-p272:64:64-i64:64-i128:128-f80:128-n8:16:32:64-S128"
target triple = "x86_64-pc-linux-gnu"

%struct.ossl_qrx_st = type { ptr, ptr, ptr, i64, i64, i64, %struct.ossl_list_st_urxe, %struct.ossl_list_st_urxe, %struct.ossl_list_st_rxe, %struct.ossl_list_st_rxe, [3 x i64], %struct.ossl_qrl_enc_level_set_st, i64, i64, i64, ptr, ptr, ptr, ptr, i8, i8, ptr, ptr, ptr }
%struct.ossl_list_st_urxe = type { ptr, ptr, i64 }
%struct.ossl_list_st_rxe = type { ptr, ptr, i64 }
%struct.ossl_qrl_enc_level_set_st = type { [4 x %struct.ossl_qrl_enc_level_st] }
%struct.ossl_qrl_enc_level_st = type { %struct.quic_hdr_protector_st, ptr, [2 x ptr], ptr, ptr, i64, i64, i32, i32, i8, i8, [2 x [16 x i8]], [64 x i8] }
%struct.quic_hdr_protector_st = type { ptr, ptr, ptr, ptr, i32 }
%struct.quic_urxe_st = type { %struct.anon, i64, i64, i64, i64, i64, %union.bio_addr_st, %union.bio_addr_st, %struct.OSSL_TIME, i8, i8 }
%struct.anon = type { ptr, ptr }
%union.bio_addr_st = type { %struct.sockaddr_in6, [84 x i8] }
%struct.sockaddr_in6 = type { i16, i16, i32, %struct.in6_addr, i32 }
%struct.in6_addr = type { %union.anon }
%union.anon = type { [4 x i32] }
%struct.OSSL_TIME = type { i64 }

; Function Attrs: inlinehint nounwind uwtable
define internal void @ossl_list_urxe_insert_tail(ptr noundef %0, ptr noundef %1) #3 {
  %3 = alloca ptr, align 8
  %4 = alloca ptr, align 8
  store ptr %0, ptr %3, align 8, !tbaa !44
  store ptr %1, ptr %4, align 8, !tbaa !46
  %5 = load ptr, ptr %3, align 8, !tbaa !44
  %6 = getelementptr inbounds nuw %struct.ossl_list_st_urxe, ptr %5, i32 0, i32 1
  %7 = load ptr, ptr %6, align 8, !tbaa !58
  %8 = icmp ne ptr %7, null
  br i1 %8, label %9, label %16

9:                                                ; preds = %2
  %10 = load ptr, ptr %4, align 8, !tbaa !46
  %11 = load ptr, ptr %3, align 8, !tbaa !44
  %12 = getelementptr inbounds nuw %struct.ossl_list_st_urxe, ptr %11, i32 0, i32 1
  %13 = load ptr, ptr %12, align 8, !tbaa !58
  %14 = getelementptr inbounds nuw %struct.quic_urxe_st, ptr %13, i32 0, i32 0
  %15 = getelementptr inbounds nuw %struct.anon, ptr %14, i32 0, i32 0
  store ptr %10, ptr %15, align 8, !tbaa !59
  br label %16

16:                                               ; preds = %9, %2
  %17 = load ptr, ptr %3, align 8, !tbaa !44
  %18 = getelementptr inbounds nuw %struct.ossl_list_st_urxe, ptr %17, i32 0, i32 1
  %19 = load ptr, ptr %18, align 8, !tbaa !58
  %20 = load ptr, ptr %4, align 8, !tbaa !46
  %21 = getelementptr inbounds nuw %struct.quic_urxe_st, ptr %20, i32 0, i32 0
  %22 = getelementptr inbounds nuw %struct.anon, ptr %21, i32 0, i32 1
  store ptr %19, ptr %22, align 8, !tbaa !60
  %23 = load ptr, ptr %4, align 8, !tbaa !46
  %24 = getelementptr inbounds nuw %struct.quic_urxe_st, ptr %23, i32 0, i32 0
  %25 = getelementptr inbounds nuw %struct.anon, ptr %24, i32 0, i32 0
  store ptr null, ptr %25, align 8, !tbaa !59
  %26 = load ptr, ptr %4, align 8, !tbaa !46
  %27 = load ptr, ptr %3, align 8, !tbaa !44
  %28 = getelementptr inbounds nuw %struct.ossl_list_st_urxe, ptr %27, i32 0, i32 1
  store ptr %26, ptr %28, align 8, !tbaa !58
  %29 = load ptr, ptr %3, align 8, !tbaa !44
  %30 = getelementptr inbounds nuw %struct.ossl_list_st_urxe, ptr %29, i32 0, i32 0
  %31 = load ptr, ptr %30, align 8, !tbaa !61
  %32 = icmp eq ptr %31, null
  br i1 %32, label %33, label %37

33:                                               ; preds = %16
  %34 = load ptr, ptr %4, align 8, !tbaa !46
  %35 = load ptr, ptr %3, align 8, !tbaa !44
  %36 = getelementptr inbounds nuw %struct.ossl_list_st_urxe, ptr %35, i32 0, i32 0
  store ptr %34, ptr %36, align 8, !tbaa !61
  br label %37

37:                                               ; preds = %33, %16
  %38 = load ptr, ptr %3, align 8, !tbaa !44
  %39 = getelementptr inbounds nuw %struct.ossl_list_st_urxe, ptr %38, i32 0, i32 2
  %40 = load i64, ptr %39, align 8, !tbaa !62
  %41 = add i64 %40, 1
  store i64 %41, ptr %39, align 8, !tbaa !62
  ret void
}

; Function Attrs: inlinehint nounwind uwtable
define internal void @ossl_list_urxe_remove(ptr noundef %0, ptr noundef %1) #3 {
  %3 = alloca ptr, align 8
  %4 = alloca ptr, align 8
  store ptr %0, ptr %3, align 8, !tbaa !44
  store ptr %1, ptr %4, align 8, !tbaa !46
  %5 = load ptr, ptr %3, align 8, !tbaa !44
  %6 = getelementptr inbounds nuw %struct.ossl_list_st_urxe, ptr %5, i32 0, i32 0
  %7 = load ptr, ptr %6, align 8, !tbaa !61
  %8 = load ptr, ptr %4, align 8, !tbaa !46
  %9 = icmp eq ptr %7, %8
  br i1 %9, label %10, label %17

10:                                               ; preds = %2
  %11 = load ptr, ptr %4, align 8, !tbaa !46
  %12 = getelementptr inbounds nuw %struct.quic_urxe_st, ptr %11, i32 0, i32 0
  %13 = getelementptr inbounds nuw %struct.anon, ptr %12, i32 0, i32 0
  %14 = load ptr, ptr %13, align 8, !tbaa !59
  %15 = load ptr, ptr %3, align 8, !tbaa !44
  %16 = getelementptr inbounds nuw %struct.ossl_list_st_urxe, ptr %15, i32 0, i32 0
  store ptr %14, ptr %16, align 8, !tbaa !61
  br label %17

17:                                               ; preds = %10, %2
  %18 = load ptr, ptr %3, align 8, !tbaa !44
  %19 = getelementptr inbounds nuw %struct.ossl_list_st_urxe, ptr %18, i32 0, i32 1
  %20 = load ptr, ptr %19, align 8, !tbaa !58
  %21 = load ptr, ptr %4, align 8, !tbaa !46
  %22 = icmp eq ptr %20, %21
  br i1 %22, label %23, label %30

23:                                               ; preds = %17
  %24 = load ptr, ptr %4, align 8, !tbaa !46
  %25 = getelementptr inbounds nuw %struct.quic_urxe_st, ptr %24, i32 0, i32 0
  %26 = getelementptr inbounds nuw %struct.anon, ptr %25, i32 0, i32 1
  %27 = load ptr, ptr %26, align 8, !tbaa !60
  %28 = load ptr, ptr %3, align 8, !tbaa !44
  %29 = getelementptr inbounds nuw %struct.ossl_list_st_urxe, ptr %28, i32 0, i32 1
  store ptr %27, ptr %29, align 8, !tbaa !58
  br label %30

30:                                               ; preds = %23, %17
  %31 = load ptr, ptr %4, align 8, !tbaa !46
  %32 = getelementptr inbounds nuw %struct.quic_urxe_st, ptr %31, i32 0, i32 0
  %33 = getelementptr inbounds nuw %struct.anon, ptr %32, i32 0, i32 1
  %34 = load ptr, ptr %33, align 8, !tbaa !60
  %35 = icmp ne ptr %34, null
  br i1 %35, label %36, label %47

36:                                               ; preds = %30
  %37 = load ptr, ptr %4, align 8, !tbaa !46
  %38 = getelementptr inbounds nuw %struct.quic_urxe_st, ptr %37, i32 0, i32 0
  %39 = getelementptr inbounds nuw %struct.anon, ptr %38, i32 0, i32 0
  %40 = load ptr, ptr %39, align 8, !tbaa !59
  %41 = load ptr, ptr %4, align 8, !tbaa !46
  %42 = getelementptr inbounds nuw %struct.quic_urxe_st, ptr %41, i32 0, i32 0
  %43 = getelementptr inbounds nuw %struct.anon, ptr %42, i32 0, i32 1
  %44 = load ptr, ptr %43, align 8, !tbaa !60
  %45 = getelementptr inbounds nuw %struct.quic_urxe_st, ptr %44, i32 0, i32 0
  %46 = getelementptr inbounds nuw %struct.anon, ptr %45, i32 0, i32 0
  store ptr %40, ptr %46, align 8, !tbaa !59
  br label %47

47:                                               ; preds = %36, %30
  %48 = load ptr, ptr %4, align 8, !tbaa !46
  %49 = getelementptr inbounds nuw %struct.quic_urxe_st, ptr %48, i32 0, i32 0
  %50 = getelementptr inbounds nuw %struct.anon, ptr %49, i32 0, i32 0
  %51 = load ptr, ptr %50, align 8, !tbaa !59
  %52 = icmp ne ptr %51, null
  br i1 %52, label %53, label %64

53:                                               ; preds = %47
  %54 = load ptr, ptr %4, align 8, !tbaa !46
  %55 = getelementptr inbounds nuw %struct.quic_urxe_st, ptr %54, i32 0, i32 0
  %56 = getelementptr inbounds nuw %struct.anon, ptr %55, i32 0, i32 1
  %57 = load ptr, ptr %56, align 8, !tbaa !60
  %58 = load ptr, ptr %4, align 8, !tbaa !46
  %59 = getelementptr inbounds nuw %struct.quic_urxe_st, ptr %58, i32 0, i32 0
  %60 = getelementptr inbounds nuw %struct.anon, ptr %59, i32 0, i32 0
  %61 = load ptr, ptr %60, align 8, !tbaa !59
  %62 = getelementptr inbounds nuw %struct.quic_urxe_st, ptr %61, i32 0, i32 0
  %63 = getelementptr inbounds nuw %struct.anon, ptr %62, i32 0, i32 1
  store ptr %57, ptr %63, align 8, !tbaa !60
  br label %64

64:                                               ; preds = %53, %47
  %65 = load ptr, ptr %3, align 8, !tbaa !44
  %66 = getelementptr inbounds nuw %struct.ossl_list_st_urxe, ptr %65, i32 0, i32 2
  %67 = load i64, ptr %66, align 8, !tbaa !62
  %68 = add i64 %67, -1
  store i64 %68, ptr %66, align 8, !tbaa !62
  %69 = load ptr, ptr %4, align 8, !tbaa !46
  %70 = getelementptr inbounds nuw %struct.quic_urxe_st, ptr %69, i32 0, i32 0
  call void @llvm.memset.p0.i64(ptr align 8 %70, i8 0, i64 16, i1 false)
  ret void
}

; Function Attrs: inlinehint nounwind uwtable
define internal ptr @ossl_list_urxe_head(ptr noundef %0) #3 {
  %2 = alloca ptr, align 8
  store ptr %0, ptr %2, align 8, !tbaa !44
  %3 = load ptr, ptr %2, align 8, !tbaa !44
  %4 = getelementptr inbounds nuw %struct.ossl_list_st_urxe, ptr %3, i32 0, i32 0
  %5 = load ptr, ptr %4, align 8, !tbaa !61
  ret ptr %5
}

; Function Attrs: nounwind uwtable
define internal void @qrx_requeue_deferred(ptr noundef %0) #0 {
  %2 = alloca ptr, align 8
  %3 = alloca ptr, align 8
  store ptr %0, ptr %2, align 8, !tbaa !15
  call void @llvm.lifetime.start.p0(i64 8, ptr %3) #8
  br label %4

4:                                                ; preds = %9, %1
  %5 = load ptr, ptr %2, align 8, !tbaa !15
  %6 = getelementptr inbounds nuw %struct.ossl_qrx_st, ptr %5, i32 0, i32 7
  %7 = call ptr @ossl_list_urxe_head(ptr noundef %6)
  store ptr %7, ptr %3, align 8, !tbaa !46
  %8 = icmp ne ptr %7, null
  br i1 %8, label %9, label %16

9:                                                ; preds = %4
  %10 = load ptr, ptr %2, align 8, !tbaa !15
  %11 = getelementptr inbounds nuw %struct.ossl_qrx_st, ptr %10, i32 0, i32 7
  %12 = load ptr, ptr %3, align 8, !tbaa !46
  call void @ossl_list_urxe_remove(ptr noundef %11, ptr noundef %12)
  %13 = load ptr, ptr %2, align 8, !tbaa !15
  %14 = getelementptr inbounds nuw %struct.ossl_qrx_st, ptr %13, i32 0, i32 6
  %15 = load ptr, ptr %3, align 8, !tbaa !46
  call void @ossl_list_urxe_insert_tail(ptr noundef %14, ptr noundef %15)
  br label %4, !llvm.loop !66

16:                                               ; preds = %4
  call void @llvm.lifetime.end.p0(i64 8, ptr %3) #8
  ret void
}

; Function Attrs: nounwind uwtable
define void @ossl_qrx_allow_1rtt_processing(ptr noundef %0) #0 {
  %2 = alloca ptr, align 8
  store ptr %0, ptr %2, align 8, !tbaa !15
  %3 = load ptr, ptr %2, align 8, !tbaa !15
  %4 = getelementptr inbounds nuw %struct.ossl_qrx_st, ptr %3, i32 0, i32 20
  %5 = load i8, ptr %4, align 1, !tbaa !111
  %6 = icmp ne i8 %5, 0
  br i1 %6, label %7, label %8

7:                                                ; preds = %1
  br label %12

8:                                                ; preds = %1
  %9 = load ptr, ptr %2, align 8, !tbaa !15
  %10 = getelementptr inbounds nuw %struct.ossl_qrx_st, ptr %9, i32 0, i32 20
  store i8 1, ptr %10, align 1, !tbaa !111
  %11 = load ptr, ptr %2, align 8, !tbaa !15
  call void @qrx_requeue_deferred(ptr noundef %11)
  br label %12

12:                                               ; preds = %8, %7
  ret void
}