; Function Attrs: nofree norecurse nosync nounwind memory(readwrite, inaccessiblemem: none) uwtable
define void @ossl_qrx_allow_1rtt_processing(ptr noundef captures(none) %0) local_unnamed_addr #8 {
  %2 = getelementptr inbounds nuw i8, ptr %0, i64 1057
  %3 = load i8, ptr %2, align 1, !tbaa !85
  %.not = icmp eq i8 %3, 0
  br i1 %.not, label %4, label %qrx_requeue_deferred.exit

4:                                                ; preds = %1
  store i8 1, ptr %2, align 1, !tbaa !85
  %5 = getelementptr inbounds nuw i8, ptr %0, i64 72
  %.val6.i = load ptr, ptr %5, align 8, !tbaa !48
  %.not7.i = icmp eq ptr %.val6.i, null
  br i1 %.not7.i, label %qrx_requeue_deferred.exit, label %.lr.ph.i

.lr.ph.i:                                         ; preds = %4
  %6 = getelementptr inbounds nuw i8, ptr %0, i64 80
  %7 = getelementptr inbounds nuw i8, ptr %0, i64 88
  %8 = getelementptr inbounds nuw i8, ptr %0, i64 48
  %9 = getelementptr inbounds nuw i8, ptr %0, i64 56
  %10 = getelementptr inbounds nuw i8, ptr %0, i64 64
  br label %11

11:                                               ; preds = %ossl_list_urxe_insert_tail.exit.i, %.lr.ph.i
  %.val8.i = phi ptr [ %.val6.i, %.lr.ph.i ], [ %.val.i, %ossl_list_urxe_insert_tail.exit.i ]
  %12 = load ptr, ptr %.val8.i, align 8, !tbaa !49
  store ptr %12, ptr %5, align 8, !tbaa !48
  %13 = load ptr, ptr %6, align 8, !tbaa !52
  %14 = icmp eq ptr %13, %.val8.i
  %15 = getelementptr inbounds nuw i8, ptr %.val8.i, i64 8
  %16 = load ptr, ptr %15, align 8, !tbaa !53
  br i1 %14, label %17, label %._crit_edge.i.i

17:                                               ; preds = %11
  store ptr %16, ptr %6, align 8, !tbaa !52
  br label %._crit_edge.i.i

._crit_edge.i.i:                                  ; preds = %17, %11
  %.not.i.i = icmp eq ptr %16, null
  br i1 %.not.i.i, label %19, label %18

18:                                               ; preds = %._crit_edge.i.i
  store ptr %12, ptr %16, align 8, !tbaa !49
  br label %19

19:                                               ; preds = %18, %._crit_edge.i.i
  %.not18.i.i = icmp eq ptr %12, null
  br i1 %.not18.i.i, label %ossl_list_urxe_remove.exit.i, label %20

20:                                               ; preds = %19
  %21 = getelementptr inbounds nuw i8, ptr %12, i64 8
  store ptr %16, ptr %21, align 8, !tbaa !53
  br label %ossl_list_urxe_remove.exit.i

ossl_list_urxe_remove.exit.i:                     ; preds = %20, %19
  %22 = load i64, ptr %7, align 8, !tbaa !54
  %23 = add i64 %22, -1
  store i64 %23, ptr %7, align 8, !tbaa !54
  tail call void @llvm.memset.p0.i64(ptr noundef nonnull align 8 dereferenceable(16) %.val8.i, i8 0, i64 16, i1 false)
  %24 = load ptr, ptr %9, align 8, !tbaa !52
  %.not.i5.i = icmp eq ptr %24, null
  br i1 %.not.i5.i, label %26, label %25

25:                                               ; preds = %ossl_list_urxe_remove.exit.i
  store ptr %.val8.i, ptr %24, align 8, !tbaa !49
  br label %26

26:                                               ; preds = %25, %ossl_list_urxe_remove.exit.i
  store ptr %24, ptr %15, align 8, !tbaa !53
  store ptr null, ptr %.val8.i, align 8, !tbaa !49
  store ptr %.val8.i, ptr %9, align 8, !tbaa !52
  %27 = load ptr, ptr %8, align 8, !tbaa !48
  %28 = icmp eq ptr %27, null
  br i1 %28, label %29, label %ossl_list_urxe_insert_tail.exit.i

29:                                               ; preds = %26
  store ptr %.val8.i, ptr %8, align 8, !tbaa !48
  br label %ossl_list_urxe_insert_tail.exit.i

ossl_list_urxe_insert_tail.exit.i:                ; preds = %29, %26
  %30 = load i64, ptr %10, align 8, !tbaa !54
  %31 = add i64 %30, 1
  store i64 %31, ptr %10, align 8, !tbaa !54
  %.val.i = load ptr, ptr %5, align 8, !tbaa !48
  %.not.i = icmp eq ptr %.val.i, null
  br i1 %.not.i, label %qrx_requeue_deferred.exit, label %11, !llvm.loop !62

qrx_requeue_deferred.exit:                        ; preds = %ossl_list_urxe_insert_tail.exit.i, %4, %1
  ret void
}